target datalayout = "e-m:e-p270:32:32-p271:32:32-p272:64:64-i64:64-f80:128-n8:16:32:64-S128"
target triple = "x86_64-pc-linux-gnu"

@.str = private unnamed_addr constant [3 x i8] c"%d\00", align 1
@.str.1 = private unnamed_addr constant [3 x i8] c"%s\00", align 1
@.str.2 = private unnamed_addr constant [6 x i8] c"%s\0A%s\00", align 1
@.str.3 = private unnamed_addr constant [2 x i8] c"\0A\00", align 1

; Function Attrs: noinline nounwind uwtable
define dso_local i32 @main() #0 {
  %1 = alloca i32, align 4
  %2 = alloca i32, align 4
  %3 = alloca i32, align 4
  %4 = alloca i32, align 4
  %5 = alloca i32, align 4
  %6 = alloca i32, align 4
  %7 = alloca [101 x i32], align 16
  %8 = alloca [101 x i32], align 16
  %9 = alloca [101 x i8], align 16
  %10 = alloca [101 x i8], align 16
  %11 = alloca i32, align 4
  %12 = alloca i32, align 4
  store i32 0, i32* %1, align 4
  %13 = call i32 (i8*, ...) @__isoc99_scanf(i8* getelementptr inbounds ([3 x i8], [3 x i8]* @.str, i64 0, i64 0), i32* %2)
  store i32 0, i32* %3, align 4
  br label %14

14:                                               ; preds = %157, %0
  %15 = load i32, i32* %3, align 4
  %16 = load i32, i32* %2, align 4
  %17 = icmp slt i32 %15, %16
  br i1 %17, label %18, label %160

18:                                               ; preds = %14
  %19 = getelementptr inbounds [101 x i8], [101 x i8]* %9, i64 0, i64 0
  %20 = call i32 (i8*, ...) @__isoc99_scanf(i8* getelementptr inbounds ([3 x i8], [3 x i8]* @.str.1, i64 0, i64 0), i8* %19)
  %21 = getelementptr inbounds [101 x i8], [101 x i8]* %9, i64 0, i64 0
  %22 = call i64 @strlen(i8* %21) #3
  %23 = trunc i64 %22 to i32
  store i32 %23, i32* %5, align 4
  store i32 0, i32* %4, align 4
  br label %24

24:                                               ; preds = %36, %18
  %25 = load i32, i32* %4, align 4
  %26 = load i32, i32* %5, align 4
  %27 = icmp slt i32 %25, %26
  br i1 %27, label %28, label %39

28:                                               ; preds = %24
  %29 = load i32, i32* %4, align 4
  %30 = sext i32 %29 to i64
  %31 = getelementptr inbounds [101 x i8], [101 x i8]* %9, i64 0, i64 %30
  %32 = load i8, i8* %31, align 1
  %33 = load i32, i32* %4, align 4
  %34 = sext i32 %33 to i64
  %35 = getelementptr inbounds [101 x i8], [101 x i8]* %10, i64 0, i64 %34
  store i8 %32, i8* %35, align 1
  br label %36

36:                                               ; preds = %28
  %37 = load i32, i32* %4, align 4
  %38 = add nsw i32 %37, 1
  store i32 %38, i32* %4, align 4
  br label %24

39:                                               ; preds = %24
  %40 = load i32, i32* %5, align 4
  %41 = sext i32 %40 to i64
  %42 = getelementptr inbounds [101 x i8], [101 x i8]* %10, i64 0, i64 %41
  store i8 0, i8* %42, align 1
  store i32 0, i32* %4, align 4
  br label %43

43:                                               ; preds = %66, %39
  %44 = load i32, i32* %4, align 4
  %45 = load i32, i32* %5, align 4
  %46 = icmp slt i32 %44, %45
  br i1 %46, label %47, label %69

47:                                               ; preds = %43
  %48 = load i32, i32* %4, align 4
  %49 = sext i32 %48 to i64
  %50 = getelementptr inbounds [101 x i8], [101 x i8]* %10, i64 0, i64 %49
  %51 = load i8, i8* %50, align 1
  %52 = sext i8 %51 to i32
  %53 = icmp ne i32 %52, 40
  br i1 %53, label %54, label %65

54:                                               ; preds = %47
  %55 = load i32, i32* %4, align 4
  %56 = sext i32 %55 to i64
  %57 = getelementptr inbounds [101 x i8], [101 x i8]* %10, i64 0, i64 %56
  %58 = load i8, i8* %57, align 1
  %59 = sext i8 %58 to i32
  %60 = icmp ne i32 %59, 41
  br i1 %60, label %61, label %65

61:                                               ; preds = %54
  %62 = load i32, i32* %4, align 4
  %63 = sext i32 %62 to i64
  %64 = getelementptr inbounds [101 x i8], [101 x i8]* %10, i64 0, i64 %63
  store i8 32, i8* %64, align 1
  br label %65

65:                                               ; preds = %61, %54, %47
  br label %66

66:                                               ; preds = %65
  %67 = load i32, i32* %4, align 4
  %68 = add nsw i32 %67, 1
  store i32 %68, i32* %4, align 4
  br label %43

69:                                               ; preds = %43
  store i32 0, i32* %11, align 4
  store i32 0, i32* %12, align 4
  store i32 0, i32* %4, align 4
  br label %70

70:                                               ; preds = %118, %69
  %71 = load i32, i32* %4, align 4
  %72 = load i32, i32* %5, align 4
  %73 = icmp slt i32 %71, %72
  br i1 %73, label %74, label %121

74:                                               ; preds = %70
  %75 = load i32, i32* %4, align 4
  %76 = sext i32 %75 to i64
  %77 = getelementptr inbounds [101 x i8], [101 x i8]* %10, i64 0, i64 %76
  %78 = load i8, i8* %77, align 1
  %79 = sext i8 %78 to i32
  %80 = icmp eq i32 %79, 40
  br i1 %80, label %81, label %89

81:                                               ; preds = %74
  %82 = load i32, i32* %4, align 4
  store i32 %82, i32* %6, align 4
  %83 = load i32, i32* %4, align 4
  %84 = load i32, i32* %11, align 4
  %85 = sext i32 %84 to i64
  %86 = getelementptr inbounds [101 x i32], [101 x i32]* %7, i64 0, i64 %85
  store i32 %83, i32* %86, align 4
  %87 = load i32, i32* %11, align 4
  %88 = add nsw i32 %87, 1
  store i32 %88, i32* %11, align 4
  br label %89

89:                                               ; preds = %81, %74
  %90 = load i32, i32* %4, align 4
  %91 = sext i32 %90 to i64
  %92 = getelementptr inbounds [101 x i8], [101 x i8]* %10, i64 0, i64 %91
  %93 = load i8, i8* %92, align 1
  %94 = sext i8 %93 to i32
  %95 = icmp eq i32 %94, 41
  br i1 %95, label %96, label %117

96:                                               ; preds = %89
  %97 = load i32, i32* %11, align 4
  %98 = icmp sgt i32 %97, 0
  br i1 %98, label %99, label %117

99:                                               ; preds = %96
  %100 = load i32, i32* %4, align 4
  %101 = sext i32 %100 to i64
  %102 = getelementptr inbounds [101 x i8], [101 x i8]* %10, i64 0, i64 %101
  store i8 32, i8* %102, align 1
  %103 = load i32, i32* %6, align 4
  %104 = sext i32 %103 to i64
  %105 = getelementptr inbounds [101 x i8], [101 x i8]* %10, i64 0, i64 %104
  store i8 32, i8* %105, align 1
  %106 = load i32, i32* %11, align 4
  %107 = add nsw i32 %106, -1
  store i32 %107, i32* %11, align 4
  %108 = load i32, i32* %11, align 4
  %109 = icmp sgt i32 %108, 0
  br i1 %109, label %110, label %116

110:                                              ; preds = %99
  %111 = load i32, i32* %11, align 4
  %112 = sub nsw i32 %111, 1
  %113 = sext i32 %112 to i64
  %114 = getelementptr inbounds [101 x i32], [101 x i32]* %7, i64 0, i64 %113
  %115 = load i32, i32* %114, align 4
  store i32 %115, i32* %6, align 4
  br label %116

116:                                              ; preds = %110, %99
  br label %117

117:                                              ; preds = %116, %96, %89
  br label %118

118:                                              ; preds = %117
  %119 = load i32, i32* %4, align 4
  %120 = add nsw i32 %119, 1
  store i32 %120, i32* %4, align 4
  br label %70

121:                                              ; preds = %70
  store i32 0, i32* %4, align 4
  br label %122

122:                                              ; preds = %149, %121
  %123 = load i32, i32* %4, align 4
  %124 = load i32, i32* %5, align 4
  %125 = icmp slt i32 %123, %124
  br i1 %125, label %126, label %152

126:                                              ; preds = %122
  %127 = load i32, i32* %4, align 4
  %128 = sext i32 %127 to i64
  %129 = getelementptr inbounds [101 x i8], [101 x i8]* %10, i64 0, i64 %128
  %130 = load i8, i8* %129, align 1
  %131 = sext i8 %130 to i32
  %132 = icmp eq i32 %131, 40
  br i1 %132, label %133, label %137

133:                                              ; preds = %126
  %134 = load i32, i32* %4, align 4
  %135 = sext i32 %134 to i64
  %136 = getelementptr inbounds [101 x i8], [101 x i8]* %10, i64 0, i64 %135
  store i8 36, i8* %136, align 1
  br label %137

137:                                              ; preds = %133, %126
  %138 = load i32, i32* %4, align 4
  %139 = sext i32 %138 to i64
  %140 = getelementptr inbounds [101 x i8], [101 x i8]* %10, i64 0, i64 %139
  %141 = load i8, i8* %140, align 1
  %142 = sext i8 %141 to i32
  %143 = icmp eq i32 %142, 41
  br i1 %143, label %144, label %148

144:                                              ; preds = %137
  %145 = load i32, i32* %4, align 4
  %146 = sext i32 %145 to i64
  %147 = getelementptr inbounds [101 x i8], [101 x i8]* %10, i64 0, i64 %146
  store i8 63, i8* %147, align 1
  br label %148

148:                                              ; preds = %144, %137
  br label %149

149:                                              ; preds = %148
  %150 = load i32, i32* %4, align 4
  %151 = add nsw i32 %150, 1
  store i32 %151, i32* %4, align 4
  br label %122

152:                                              ; preds = %122
  %153 = getelementptr inbounds [101 x i8], [101 x i8]* %9, i64 0, i64 0
  %154 = getelementptr inbounds [101 x i8], [101 x i8]* %10, i64 0, i64 0
  %155 = call i32 (i8*, ...) @printf(i8* getelementptr inbounds ([6 x i8], [6 x i8]* @.str.2, i64 0, i64 0), i8* %153, i8* %154)
  %156 = call i32 (i8*, ...) @printf(i8* getelementptr inbounds ([2 x i8], [2 x i8]* @.str.3, i64 0, i64 0))
  br label %157

157:                                              ; preds = %152
  %158 = load i32, i32* %3, align 4
  %159 = add nsw i32 %158, 1
  store i32 %159, i32* %3, align 4
  br label %14

160:                                              ; preds = %14
  ret i32 0
}